target datalayout = "e-m:e-p270:32:32-p271:32:32-p272:64:64-i64:64-i128:128-f80:128-n8:16:32:64-S128"
target triple = "x86_64-pc-linux-gnu"

@.str.27 = private unnamed_addr constant [11 x i8] c"sacctmgr.c\00", align 1
@_binary_usage_txt_end = external global ptr, align 8
@_binary_usage_txt_start = external global ptr, align 8
@__func__._usage = private unnamed_addr constant [7 x i8] c"_usage\00", align 1
@.str.112 = private unnamed_addr constant [4 x i8] c"%s\0A\00", align 1

; Function Attrs: nounwind uwtable
define internal void @_usage() #0 {
  %1 = alloca ptr, align 8
  %2 = alloca i64, align 8
  %3 = alloca ptr, align 8
  call void @llvm.lifetime.start.p0(i64 8, ptr %1) #12
  br label %4

4:                                                ; preds = %0
  call void @llvm.lifetime.start.p0(i64 8, ptr %2) #12
  store i64 sub (i64 ptrtoint (ptr @_binary_usage_txt_end to i64), i64 ptrtoint (ptr @_binary_usage_txt_start to i64)), ptr %2, align 8
  call void @llvm.lifetime.start.p0(i64 8, ptr %3) #12
  %5 = load i64, ptr %2, align 8
  %6 = add i64 %5, 1
  %7 = call ptr @slurm_xcalloc(i64 noundef 1, i64 noundef %6, i1 noundef zeroext true, i1 noundef zeroext false, ptr noundef @.str.27, i32 noundef 997, ptr noundef @__func__._usage)
  store ptr %7, ptr %3, align 8
  %8 = load ptr, ptr %3, align 8
  %9 = load i64, ptr %2, align 8
  call void @llvm.memcpy.p0.p0.i64(ptr align 1 %8, ptr align 8 @_binary_usage_txt_start, i64 %9, i1 false)
  %10 = load ptr, ptr %3, align 8
  %11 = load i64, ptr %2, align 8
  %12 = getelementptr inbounds nuw i8, ptr %10, i64 %11
  store i8 0, ptr %12, align 1
  %13 = load ptr, ptr %3, align 8
  store ptr %13, ptr %1, align 8
  call void @llvm.lifetime.end.p0(i64 8, ptr %3) #12
  call void @llvm.lifetime.end.p0(i64 8, ptr %2) #12
  br label %14

14:                                               ; preds = %4
  br label %15

15:                                               ; preds = %14
  %16 = load ptr, ptr %1, align 8
  %17 = call i32 (ptr, ...) @printf(ptr noundef @.str.112, ptr noundef %16)
  call void @slurm_xfree(ptr noundef %1)
  call void @llvm.lifetime.end.p0(i64 8, ptr %1) #12
  ret void
}