; Function Attrs: nounwind uwtable
define internal fastcc void @_usage() unnamed_addr #7 {
  %1 = alloca ptr, align 8
  call void @llvm.lifetime.start.p0(i64 8, ptr nonnull %1) #15
  %2 = tail call ptr @slurm_xcalloc(i64 noundef 1, i64 noundef add (i64 sub (i64 ptrtoint (ptr @_binary_usage_txt_end to i64), i64 ptrtoint (ptr @_binary_usage_txt_start to i64)), i64 1), i1 noundef zeroext true, i1 noundef zeroext false, ptr noundef nonnull @.str.27, i32 noundef 997, ptr noundef nonnull @__func__._usage) #15
  tail call void @llvm.memcpy.p0.p0.i64(ptr align 1 %2, ptr nonnull align 8 @_binary_usage_txt_start, i64 sub (i64 ptrtoint (ptr @_binary_usage_txt_end to i64), i64 ptrtoint (ptr @_binary_usage_txt_start to i64)), i1 false)
  %3 = getelementptr inbounds nuw i8, ptr %2, i64 sub (i64 ptrtoint (ptr @_binary_usage_txt_end to i64), i64 ptrtoint (ptr @_binary_usage_txt_start to i64))
  store i8 0, ptr %3, align 1
  store ptr %2, ptr %1, align 8
  %puts = tail call i32 @puts(ptr nonnull dereferenceable(1) %2)
  call void @slurm_xfree(ptr noundef nonnull %1) #15
  call void @llvm.lifetime.end.p0(i64 8, ptr nonnull %1) #15
  ret void
}